; Function Attrs: mustprogress uwtable
define dso_local void @_ZN15cmStateSnapshot13SetDefinitionERKNSt7__cxx1112basic_stringIcSt11char_traitsIcESaIcEEESt17basic_string_viewIcS3_E(ptr noundef nonnull readonly align 8 captures(none) dereferenceable(24) %0, ptr noundef nonnull align 8 dereferenceable(32) %1, i64 %2, ptr %3) local_unnamed_addr #4 align 2 {
  %5 = getelementptr inbounds nuw i8, ptr %0, i64 8
  %6 = load ptr, ptr %5, align 8
  %7 = getelementptr inbounds nuw i8, ptr %0, i64 16
  %8 = load i64, ptr %7, align 8
  %9 = load ptr, ptr %6, align 8
  %10 = getelementptr %"struct.cmStateDetail::SnapshotDataType", ptr %9, i64 %8
  %11 = getelementptr i8, ptr %10, i64 -88
  %12 = load ptr, ptr %11, align 8
  %13 = getelementptr i8, ptr %10, i64 -80
  %14 = load i64, ptr %13, align 8
  %15 = load ptr, ptr %12, align 8
  %16 = getelementptr %class.cmDefinitions, ptr %15, i64 %14
  %17 = getelementptr i8, ptr %16, i64 -56
  tail call void @_ZN13cmDefinitions3SetERKNSt7__cxx1112basic_stringIcSt11char_traitsIcESaIcEEESt17basic_string_viewIcS3_E(ptr noundef nonnull align 8 dereferenceable(56) %17, ptr noundef nonnull align 8 dereferenceable(32) %1, i64 %2, ptr %3)
  ret void
}